; Function Attrs: mustprogress uwtable
define hidden void @_ZNK8expr2var7displayERSo(ptr nocapture noundef nonnull readonly align 8 dereferenceable(41) %this, ptr noundef nonnull align 8 dereferenceable(8) %out) local_unnamed_addr #3 align 2 personality ptr @__gxx_personality_v0 {
entry:
  %ref.tmp = alloca %struct.mk_ismt2_pp, align 8
  %m_mapping = getelementptr inbounds i8, ptr %this, i64 16
  %0 = load ptr, ptr %m_mapping, align 8
  %cmp.i.i = icmp eq ptr %0, null
  br i1 %cmp.i.i, label %for.end, label %_ZNK6vectorIN7obj_mapI4exprjE8key_dataELb0EjE3endEv.exit

_ZNK6vectorIN7obj_mapI4exprjE8key_dataELb0EjE3endEv.exit: ; preds = %entry
  %arrayidx.i.i = getelementptr inbounds i8, ptr %0, i64 -4
  %1 = load i32, ptr %arrayidx.i.i, align 4
  %2 = zext i32 %1 to i64
  %add.ptr.i = getelementptr inbounds %"struct.obj_map<expr, unsigned int>::key_data", ptr %0, i64 %2
  %cmp.not6 = icmp eq i32 %1, 0
  br i1 %cmp.not6, label %for.end, label %for.body.lr.ph

for.body.lr.ph:                                   ; preds = %_ZNK6vectorIN7obj_mapI4exprjE8key_dataELb0EjE3endEv.exit
  %m_empty.i = getelementptr inbounds i8, ptr %ref.tmp, i64 16
  br label %for.body

for.body:                                         ; preds = %for.body.lr.ph, %invoke.cont9
  %__begin1.07 = phi ptr [ %0, %for.body.lr.ph ], [ %incdec.ptr, %invoke.cont9 ]
  %3 = load ptr, ptr %__begin1.07, align 8
  %4 = load ptr, ptr %this, align 8
  call void @_ZN11mk_ismt2_ppC1EP3astR11ast_managerjjPKc(ptr noundef nonnull align 8 dereferenceable(48) %ref.tmp, ptr noundef %3, ptr noundef nonnull align 8 dereferenceable(976) %4, i32 noundef 0, i32 noundef 0, ptr noundef null)
  %call4 = invoke noundef nonnull align 8 dereferenceable(8) ptr @_ZlsRSoRK11mk_ismt2_pp(ptr noundef nonnull align 8 dereferenceable(8) %out, ptr noundef nonnull align 8 dereferenceable(48) %ref.tmp)
          to label %invoke.cont unwind label %lpad

invoke.cont:                                      ; preds = %for.body
  %call6 = invoke noundef nonnull align 8 dereferenceable(8) ptr @_ZStlsISt11char_traitsIcEERSt13basic_ostreamIcT_ES5_PKc(ptr noundef nonnull align 8 dereferenceable(8) %call4, ptr noundef nonnull @.str)
          to label %invoke.cont5 unwind label %lpad

invoke.cont5:                                     ; preds = %invoke.cont
  %m_value = getelementptr inbounds i8, ptr %__begin1.07, i64 8
  %5 = load i32, ptr %m_value, align 8
  %call8 = invoke noundef nonnull align 8 dereferenceable(8) ptr @_ZNSolsEj(ptr noundef nonnull align 8 dereferenceable(8) %call6, i32 noundef %5)
          to label %invoke.cont7 unwind label %lpad

invoke.cont7:                                     ; preds = %invoke.cont5
  %call10 = invoke noundef nonnull align 8 dereferenceable(8) ptr @_ZStlsISt11char_traitsIcEERSt13basic_ostreamIcT_ES5_PKc(ptr noundef nonnull align 8 dereferenceable(8) %call8, ptr noundef nonnull @.str.1)
          to label %invoke.cont9 unwind label %lpad

invoke.cont9:                                     ; preds = %invoke.cont7
  call void @_ZN10params_refD1Ev(ptr noundef nonnull align 8 dereferenceable(8) %m_empty.i) #14
  %incdec.ptr = getelementptr inbounds i8, ptr %__begin1.07, i64 16
  %cmp.not = icmp eq ptr %incdec.ptr, %add.ptr.i
  br i1 %cmp.not, label %for.end, label %for.body

lpad:                                             ; preds = %invoke.cont7, %invoke.cont5, %invoke.cont, %for.body
  %6 = landingpad { ptr, i32 }
          cleanup
  call void @_ZN10params_refD1Ev(ptr noundef nonnull align 8 dereferenceable(8) %m_empty.i) #14
  resume { ptr, i32 } %6

for.end:                                          ; preds = %invoke.cont9, %entry, %_ZNK6vectorIN7obj_mapI4exprjE8key_dataELb0EjE3endEv.exit
  ret void
}